; ModuleID = '12/900.c'
source_filename = "12/900.c"
target datalayout = "e-m:e-p270:32:32-p271:32:32-p272:64:64-i64:64-f80:128-n8:16:32:64-S128"
target triple = "x86_64-pc-linux-gnu"

@.str = private unnamed_addr constant [3 x i8] c"%d\00", align 1
@.str.1 = private unnamed_addr constant [4 x i8] c"%d\0A\00", align 1

; Function Attrs: noinline nounwind uwtable
define dso_local i32 @main() #0 {
  %1 = alloca i32, align 4
  %2 = alloca [17 x i32], align 16
  %3 = alloca i32, align 4
  %4 = alloca i32, align 4
  %5 = alloca i32, align 4
  %6 = alloca i32, align 4
  store i32 0, i32* %1, align 4
  %7 = bitcast [17 x i32]* %2 to i8*
  call void @llvm.memset.p0i8.i64(i8* align 16 %7, i8 0, i64 68, i1 false)
  store i32 0, i32* %3, align 4
  store i32 0, i32* %4, align 4
  store i32 0, i32* %5, align 4
  store i32 0, i32* %6, align 4
  br label %8

8:                                                ; preds = %95, %0
  %9 = getelementptr inbounds [17 x i32], [17 x i32]* %2, i64 0, i64 0
  %10 = call i32 (i8*, ...) @__isoc99_scanf(i8* getelementptr inbounds ([3 x i8], [3 x i8]* @.str, i64 0, i64 0), i32* %9)
  br label %11

11:                                               ; preds = %23, %8
  %12 = load i32, i32* %3, align 4
  %13 = sext i32 %12 to i64
  %14 = getelementptr inbounds [17 x i32], [17 x i32]* %2, i64 0, i64 %13
  %15 = load i32, i32* %14, align 4
  %16 = icmp ne i32 %15, 0
  br i1 %16, label %17, label %21

17:                                               ; preds = %11
  %18 = getelementptr inbounds [17 x i32], [17 x i32]* %2, i64 0, i64 0
  %19 = load i32, i32* %18, align 16
  %20 = icmp ne i32 %19, -1
  br label %21

21:                                               ; preds = %17, %11
  %22 = phi i1 [ false, %11 ], [ %20, %17 ]
  br i1 %22, label %23, label %30

23:                                               ; preds = %21
  %24 = load i32, i32* %3, align 4
  %25 = add nsw i32 %24, 1
  store i32 %25, i32* %3, align 4
  %26 = load i32, i32* %3, align 4
  %27 = sext i32 %26 to i64
  %28 = getelementptr inbounds [17 x i32], [17 x i32]* %2, i64 0, i64 %27
  %29 = call i32 (i8*, ...) @__isoc99_scanf(i8* getelementptr inbounds ([3 x i8], [3 x i8]* @.str, i64 0, i64 0), i32* %28)
  br label %11

30:                                               ; preds = %21
  %31 = getelementptr inbounds [17 x i32], [17 x i32]* %2, i64 0, i64 0
  %32 = load i32, i32* %31, align 16
  %33 = icmp ne i32 %32, -1
  br i1 %33, label %34, label %82

34:                                               ; preds = %30
  store i32 0, i32* %6, align 4
  br label %35

35:                                               ; preds = %76, %34
  %36 = load i32, i32* %6, align 4
  %37 = load i32, i32* %3, align 4
  %38 = icmp slt i32 %36, %37
  br i1 %38, label %39, label %79

39:                                               ; preds = %35
  %40 = load i32, i32* %3, align 4
  %41 = sub nsw i32 %40, 1
  store i32 %41, i32* %5, align 4
  br label %42

42:                                               ; preds = %72, %39
  %43 = load i32, i32* %5, align 4
  %44 = load i32, i32* %6, align 4
  %45 = icmp sgt i32 %43, %44
  br i1 %45, label %46, label %75

46:                                               ; preds = %42
  %47 = load i32, i32* %5, align 4
  %48 = sext i32 %47 to i64
  %49 = getelementptr inbounds [17 x i32], [17 x i32]* %2, i64 0, i64 %48
  %50 = load i32, i32* %49, align 4
  %51 = load i32, i32* %6, align 4
  %52 = sext i32 %51 to i64
  %53 = getelementptr inbounds [17 x i32], [17 x i32]* %2, i64 0, i64 %52
  %54 = load i32, i32* %53, align 4
  %55 = mul nsw i32 2, %54
  %56 = icmp eq i32 %50, %55
  br i1 %56, label %68, label %57

57:                                               ; preds = %46
  %58 = load i32, i32* %6, align 4
  %59 = sext i32 %58 to i64
  %60 = getelementptr inbounds [17 x i32], [17 x i32]* %2, i64 0, i64 %59
  %61 = load i32, i32* %60, align 4
  %62 = load i32, i32* %5, align 4
  %63 = sext i32 %62 to i64
  %64 = getelementptr inbounds [17 x i32], [17 x i32]* %2, i64 0, i64 %63
  %65 = load i32, i32* %64, align 4
  %66 = mul nsw i32 2, %65
  %67 = icmp eq i32 %61, %66
  br i1 %67, label %68, label %71

68:                                               ; preds = %57, %46
  %69 = load i32, i32* %4, align 4
  %70 = add nsw i32 %69, 1
  store i32 %70, i32* %4, align 4
  br label %71

71:                                               ; preds = %68, %57
  br label %72

72:                                               ; preds = %71
  %73 = load i32, i32* %5, align 4
  %74 = add nsw i32 %73, -1
  store i32 %74, i32* %5, align 4
  br label %42

75:                                               ; preds = %42
  br label %76

76:                                               ; preds = %75
  %77 = load i32, i32* %6, align 4
  %78 = add nsw i32 %77, 1
  store i32 %78, i32* %6, align 4
  br label %35

79:                                               ; preds = %35
  %80 = load i32, i32* %4, align 4
  %81 = call i32 (i8*, ...) @printf(i8* getelementptr inbounds ([4 x i8], [4 x i8]* @.str.1, i64 0, i64 0), i32 %80)
  br label %82

82:                                               ; preds = %79, %30
  store i32 0, i32* %6, align 4
  br label %83

83:                                               ; preds = %91, %82
  %84 = load i32, i32* %6, align 4
  %85 = load i32, i32* %3, align 4
  %86 = icmp slt i32 %84, %85
  br i1 %86, label %87, label %94

87:                                               ; preds = %83
  %88 = load i32, i32* %6, align 4
  %89 = sext i32 %88 to i64
  %90 = getelementptr inbounds [17 x i32], [17 x i32]* %2, i64 0, i64 %89
  store i32 0, i32* %90, align 4
  br label %91

91:                                               ; preds = %87
  %92 = load i32, i32* %6, align 4
  %93 = add nsw i32 %92, 1
  store i32 %93, i32* %6, align 4
  br label %83

94:                                               ; preds = %83
  store i32 0, i32* %4, align 4
  store i32 0, i32* %3, align 4
  br label %95

95:                                               ; preds = %94
  %96 = getelementptr inbounds [17 x i32], [17 x i32]* %2, i64 0, i64 0
  %97 = load i32, i32* %96, align 16
  %98 = icmp ne i32 %97, -1
  br i1 %98, label %8, label %99

99:                                               ; preds = %95
  %100 = load i32, i32* %1, align 4
  ret i32 %100
}

; Function Attrs: argmemonly nounwind willreturn
declare void @llvm.memset.p0i8.i64(i8* nocapture writeonly, i8, i64, i1 immarg) #1

declare dso_local i32 @__isoc99_scanf(i8*, ...) #2

declare dso_local i32 @printf(i8*, ...) #2


!llvm.module.flags = !{!0}
!llvm.ident = !{!1}

!0 = !{i32 1, !"wchar_size", i32 4}
!1 = !{!"clang version 10.0.0-4ubuntu1 "}
